target datalayout = "e-m:e-p270:32:32-p271:32:32-p272:64:64-i64:64-i128:128-f80:128-n8:16:32:64-S128"
target triple = "x86_64-pc-linux-gnu"

; Function Attrs: null_pointer_is_valid sspstrong uwtable
define hidden zeroext i1 @osi_calc_checksum(ptr noundef %0, i32 noundef %1, i32 noundef %2, ptr noundef %3, ptr noundef %4) #0 {
  %6 = alloca i1, align 1
  %7 = alloca ptr, align 8
  %8 = alloca i32, align 4
  %9 = alloca i32, align 4
  %10 = alloca ptr, align 8
  %11 = alloca ptr, align 8
  %12 = alloca i32, align 4
  %13 = alloca ptr, align 8
  %14 = alloca i32, align 4
  %15 = alloca i32, align 4
  %16 = alloca i32, align 4
  store ptr %0, ptr %7, align 8
  store i32 %1, ptr %8, align 4
  store i32 %2, ptr %9, align 4
  store ptr %3, ptr %10, align 8
  store ptr %4, ptr %11, align 8
  call void @llvm.lifetime.start.p0(i64 4, ptr %12) #4
  call void @llvm.lifetime.start.p0(i64 8, ptr %13) #4
  call void @llvm.lifetime.start.p0(i64 4, ptr %14) #4
  call void @llvm.lifetime.start.p0(i64 4, ptr %15) #4
  %17 = load ptr, ptr %7, align 8
  %18 = load i32, ptr %8, align 4
  %19 = call i32 @tvb_captured_length_remaining(ptr noundef %17, i32 noundef %18)
  store i32 %19, ptr %12, align 4
  %20 = load i32, ptr %12, align 4
  %21 = load i32, ptr %9, align 4
  %22 = icmp ult i32 %20, %21
  br i1 %22, label %23, label %24

23:                                               ; preds = %5
  store i1 false, ptr %6, align 1
  store i32 1, ptr %16, align 4
  br label %73

24:                                               ; preds = %5
  %25 = load ptr, ptr %7, align 8
  %26 = load i32, ptr %8, align 4
  %27 = load i32, ptr %9, align 4
  %28 = call ptr @tvb_get_ptr(ptr noundef %25, i32 noundef %26, i32 noundef %27)
  store ptr %28, ptr %13, align 8
  %29 = load ptr, ptr %10, align 8
  store i32 0, ptr %29, align 4
  %30 = load ptr, ptr %11, align 8
  store i32 0, ptr %30, align 4
  br label %31

31:                                               ; preds = %60, %24
  %32 = load i32, ptr %9, align 4
  %33 = icmp ne i32 %32, 0
  br i1 %33, label %34, label %72

34:                                               ; preds = %31
  %35 = load i32, ptr %9, align 4
  store i32 %35, ptr %14, align 4
  %36 = load i32, ptr %14, align 4
  %37 = icmp ugt i32 %36, 5803
  br i1 %37, label %38, label %39

38:                                               ; preds = %34
  store i32 5803, ptr %14, align 4
  br label %39

39:                                               ; preds = %38, %34
  store i32 0, ptr %15, align 4
  br label %40

40:                                               ; preds = %57, %39
  %41 = load i32, ptr %15, align 4
  %42 = load i32, ptr %14, align 4
  %43 = icmp ult i32 %41, %42
  br i1 %43, label %44, label %60

44:                                               ; preds = %40
  %45 = load ptr, ptr %13, align 8
  %46 = getelementptr i8, ptr %45, i32 1
  store ptr %46, ptr %13, align 8
  %47 = load i8, ptr %45, align 1
  %48 = zext i8 %47 to i32
  %49 = load ptr, ptr %10, align 8
  %50 = load i32, ptr %49, align 4
  %51 = add i32 %50, %48
  store i32 %51, ptr %49, align 4
  %52 = load ptr, ptr %10, align 8
  %53 = load i32, ptr %52, align 4
  %54 = load ptr, ptr %11, align 8
  %55 = load i32, ptr %54, align 4
  %56 = add i32 %55, %53
  store i32 %56, ptr %54, align 4
  br label %57

57:                                               ; preds = %44
  %58 = load i32, ptr %15, align 4
  %59 = add i32 %58, 1
  store i32 %59, ptr %15, align 4
  br label %40, !llvm.loop !6

60:                                               ; preds = %40
  %61 = load ptr, ptr %10, align 8
  %62 = load i32, ptr %61, align 4
  %63 = urem i32 %62, 255
  %64 = load ptr, ptr %10, align 8
  store i32 %63, ptr %64, align 4
  %65 = load ptr, ptr %11, align 8
  %66 = load i32, ptr %65, align 4
  %67 = urem i32 %66, 255
  %68 = load ptr, ptr %11, align 8
  store i32 %67, ptr %68, align 4
  %69 = load i32, ptr %14, align 4
  %70 = load i32, ptr %9, align 4
  %71 = sub i32 %70, %69
  store i32 %71, ptr %9, align 4
  br label %31, !llvm.loop !8

72:                                               ; preds = %31
  store i1 true, ptr %6, align 1
  store i32 1, ptr %16, align 4
  br label %73

73:                                               ; preds = %72, %23
  call void @llvm.lifetime.end.p0(i64 4, ptr %15) #4
  call void @llvm.lifetime.end.p0(i64 4, ptr %14) #4
  call void @llvm.lifetime.end.p0(i64 8, ptr %13) #4
  call void @llvm.lifetime.end.p0(i64 4, ptr %12) #4
  %74 = load i1, ptr %6, align 1
  ret i1 %74
}