; Function Attrs: null_pointer_is_valid sspstrong uwtable
define hidden noundef zeroext i1 @osi_calc_checksum(ptr noundef %0, i32 noundef %1, i32 noundef %2, ptr noundef captures(none) %3, ptr noundef captures(none) %4) local_unnamed_addr #0 {
  %6 = tail call i32 @tvb_captured_length_remaining(ptr noundef %0, i32 noundef %1)
  %7 = icmp uge i32 %6, %2
  br i1 %7, label %8, label %.loopexit

8:                                                ; preds = %5
  %9 = tail call ptr @tvb_get_ptr(ptr noundef %0, i32 noundef %1, i32 noundef %2)
  store i32 0, ptr %3, align 4
  store i32 0, ptr %4, align 4
  %.not31 = icmp eq i32 %2, 0
  br i1 %.not31, label %.loopexit, label %.lr.ph

.lr.ph:                                           ; preds = %8, %19
  %.02533 = phi ptr [ %11, %19 ], [ %9, %8 ]
  %.02732 = phi i32 [ %24, %19 ], [ %2, %8 ]
  %spec.store.select = tail call i32 @llvm.umin.i32(i32 %.02732, i32 5803)
  br label %10

10:                                               ; preds = %.lr.ph, %10
  %.030 = phi i32 [ 0, %.lr.ph ], [ %18, %10 ]
  %.129 = phi ptr [ %.02533, %.lr.ph ], [ %11, %10 ]
  %11 = getelementptr i8, ptr %.129, i64 1
  %12 = load i8, ptr %.129, align 1
  %13 = zext i8 %12 to i32
  %14 = load i32, ptr %3, align 4
  %15 = add i32 %14, %13
  store i32 %15, ptr %3, align 4
  %16 = load i32, ptr %4, align 4
  %17 = add i32 %16, %15
  store i32 %17, ptr %4, align 4
  %18 = add nuw nsw i32 %.030, 1
  %exitcond.not = icmp eq i32 %18, %spec.store.select
  br i1 %exitcond.not, label %19, label %10, !llvm.loop !6

19:                                               ; preds = %10
  %20 = load i32, ptr %3, align 4
  %21 = urem i32 %20, 255
  store i32 %21, ptr %3, align 4
  %22 = load i32, ptr %4, align 4
  %23 = urem i32 %22, 255
  store i32 %23, ptr %4, align 4
  %24 = sub i32 %.02732, %spec.store.select
  %.not = icmp eq i32 %24, 0
  br i1 %.not, label %.loopexit, label %.lr.ph, !llvm.loop !8

.loopexit:                                        ; preds = %19, %8, %5
  ret i1 %7
}